(dp0
I1
(dp1
S'insert time'
p2
F2.0949459075927734
sS'file size post'
p3
I299644
sS'insert size'
p4
I99996
sS'k'
p5
I17
sS'file size pre'
p6
I299008
sS'm'
p7
I2396169
sS'theoretical'
p8
F1e-05
sS'empirical'
p9
F1.025217640135944e-05
ssI2
(dp10
g2
F1.1342339515686035
sg3
I313417
sg4
I99996
sg5
I6
sg6
I598016
sg7
I4792338
sg8
cnumpy.core.multiarray
scalar
p11
(cnumpy
dtype
p12
(S'f8'
p13
I0
I1
tp14
Rp15
(I3
S'<'
p16
NNNI-1
I-1
I0
tp17
bS'\xcc\xf2;\xa5\x1cF\xc6>'
p18
tp19
Rp20
sg9
F2.6133568669469657e-06
ssI3
(dp21
g2
F1.075390100479126
sg3
I319852
sg4
I99996
sg5
I5
sg6
I897024
sg7
I7188507
sg8
g11
(g15
S'\xb6\xb6q\x81\x00\xf9\xb6>'
p22
tp23
Rp24
sg9
F1.3065921493712227e-06
ssI4
(dp25
g2
F1.076766014099121
sg3
I348216
sg4
I99996
sg5
I5
sg6
I1196032
sg7
I9584676
sg8
g11
(g15
S"\xb3V'v\xce\xc3\x96>"
p26
tp27
Rp28
sg9
F3.0153411511748323e-07
ssI5
(dp29
g2
F0.9529819488525391
sg3
I312985
sg4
I99996
sg5
I4
sg6
I1495040
sg7
I11980845
sg8
g11
(g15
S'\xa2\x8e$I\xde\x7f\xb3>'
p30
tp31
Rp32
sg9
F1.3066576822224598e-06
ssI6
(dp33
g2
F0.9705710411071777
sg3
I326861
sg4
I99996
sg5
I4
sg6
I1794048
sg7
I14377014
sg8
g11
(g15
S'\xbb\xb8\xf1eJ\x04\xa3>'
p34
tp35
Rp36
sg9
F1.0051032105308282e-07
ssI7
(dp37
g2
F0.9718320369720459
sg3
I338514
sg4
I99996
sg5
I4
sg6
I2093056
sg7
I16773183
sg8
g11
(g15
S'\xeav{7S\xb1\x94>'
p38
tp39
Rp40
sg9
F0.0
ssI8
(dp41
g2
F0.9631011486053467
sg3
I349369
sg4
I99996
sg5
I4
sg6
I2396160
sg7
I19169352
sg8
g11
(g15
S'\xd3\xb9W\xabbg\x88>'
p42
tp43
Rp44
sg9
F3.0153596389287755e-07
ssI9
(dp45
g2
F0.9496660232543945
sg3
I358333
sg4
I99996
sg5
I4
sg6
I2695168
sg7
I21565521
sg8
g11
(g15
S'\x98\x08\xe4\xd4\x8e\x9c~>'
p46
tp47
Rp48
sg9
F1.0051181621937066e-07
ssI10
(dp49
g2
F0.8996691703796387
sg3
I291218
sg4
I99996
sg5
I3
sg6
I2994176
sg7
I23961690
sg8
g11
(g15
S"\x96m\xbb\xff\xa1'\xc0>"
p50
tp51
Rp52
sg9
F2.311776420262459e-06
ssI11
(dp53
g2
F0.8418939113616943
sg3
I296858
sg4
I99996
sg5
I3
sg6
I3293184
sg7
I26357859
sg8
g11
(g15
S'\x10\xaaC\xd9\xebP\xb8>'
p54
tp55
Rp56
sg9
F1.4071733475739275e-06
ss.