(dp0
I1
(dp1
S'insert time'
p2
F0.6117751598358154
sS'file size post'
p3
I17068
sS'insert size'
p4
I10000
sS'k'
p5
I10
sS'file size pre'
p6
I16384
sS'm'
p7
I143776
sS'theoretical'
p8
F0.001
sS'empirical'
p9
F0.000976498990984393
ssI2
(dp10
g2
F0.25327587127685547
sg3
I18783
sg4
I10000
sg5
I4
sg6
I32768
sg7
I287552
sg8
cnumpy.core.multiarray
scalar
p11
(cnumpy
dtype
p12
(S'f8'
p13
I0
I1
tp14
Rp15
(I3
S'<'
p16
NNNI-1
I-1
I0
tp17
bS'\x96\xe7\xc3\xa4\xa8\xa32?'
p18
tp19
Rp20
sg9
F0.00027214668706432765
ssI3
(dp21
g2
F0.18955302238464355
sg3
I19312
sg4
I10000
sg5
I3
sg6
I53248
sg7
I431328
sg8
g11
(g15
S'\x94\xa7\x8c\x1d\xc8\xe03?'
p22
tp23
Rp24
sg9
F0.0003111633607644013
ssI4
(dp25
g2
F0.20386099815368652
sg3
I20550
sg4
I10000
sg5
I3
sg6
I69632
sg7
I575104
sg8
g11
(g15
S's\x8b\xe9\x91\xf45!?'
p26
tp27
Rp28
sg9
F0.0001330671989354624
ssI5
(dp29
g2
F0.19217205047607422
sg3
I21452
sg4
I10000
sg5
I3
sg6
I86016
sg7
I718880
sg8
g11
(g15
S'\xa2\x18\x821L\xe6\x11?'
p30
tp31
Rp32
sg9
F8.003921921741653e-05
ssI6
(dp33
g2
F0.18732190132141113
sg3
I23168
sg4
I10000
sg5
I3
sg6
I106496
sg7
I862656
sg8
g11
(g15
S';F\xec\xa3\xd9\xee\x04?'
p34
tp35
Rp36
sg9
F4.101997672866686e-05
ssI7
(dp37
g2
F0.19642400741577148
sg3
I23769
sg4
I10000
sg5
I3
sg6
I122880
sg7
I1006432
sg8
g11
(g15
S'^\xf3\xa2\xf8\x8c\x8f\xfa>'
p38
tp39
Rp40
sg9
F2.7013479726383466e-05
ssI8
(dp41
g2
F0.1361069679260254
sg3
I18233
sg4
I10000
sg5
I2
sg6
I143360
sg7
I1150208
sg8
g11
(g15
S'K\xabf\xa4>y3?'
p42
tp43
Rp44
sg9
F0.0002951469831976324
ssI9
(dp45
g2
F0.12863898277282715
sg3
I18450
sg4
I10000
sg5
I2
sg6
I159744
sg7
I1293984
sg8
g11
(g15
S'y \x06]\x1c\xd5.?'
p46
tp47
Rp48
sg9
F0.00022111298873724473
ssI10
(dp49
g2
F0.12632203102111816
sg3
I18702
sg4
I10000
sg5
I2
sg6
I176128
sg7
I1437760
sg8
g11
(g15
S'"5\xc9\xf0H\x03)?'
p50
tp51
Rp52
sg9
F0.00017409139798394156
ssI11
(dp53
g2
F0.14983510971069336
sg3
I19353
sg4
I10000
sg5
I2
sg6
I196608
sg7
I1581536
sg8
g11
(g15
S'.\xe5M\x11\xa7\xb2$?'
p54
tp55
Rp56
sg9
F0.00014707750984768974
ss.