(dp0
I1
(dp1
S'insert time'
p2
F103.89459586143494
sS'file size post'
p3
I2990258
sS'insert size'
p4
I999488
sS'k'
p5
I17
sS'file size pre'
p6
I2990080
sS'm'
p7
I23950378
sS'theoretical'
p8
F1e-05
sS'empirical'
p9
F1.0160761352890283e-05
ssI2
(dp10
g2
F36.383177042007446
sg3
I3133743
sg4
I999488
sg5
I6
sg6
I5984256
sg7
I47900756
sg8
cnumpy.core.multiarray
scalar
p11
(cnumpy
dtype
p12
(S'f8'
p13
I0
I1
tp14
Rp15
(I3
S'<'
p16
NNNI-1
I-1
I0
tp17
bS'c\xfbw4\x1dF\xc6>'
p18
tp19
Rp20
sg9
F2.7161772802635214e-06
ssI3
(dp21
g2
F30.53756308555603
sg3
I3201001
sg4
I999488
sg5
I5
sg6
I8978432
sg7
I71851134
sg8
g11
(g15
S'z\xc8\x14\x00\x01\xf9\xb6>'
p22
tp23
Rp24
sg9
F1.3078145844866833e-06
ssI4
(dp25
g2
F30.822152853012085
sg3
I3486992
sg4
I999488
sg5
I5
sg6
I11972608
sg7
I95801512
sg8
g11
(g15
S'\x18\x8c\xc0\xf4\xce\xc3\x96>'
p26
tp27
Rp28
sg9
F2.0119862066273618e-07
ssI5
(dp29
g2
F23.376933097839355
sg3
I3136146
sg4
I999488
sg5
I4
sg6
I14966784
sg7
I119751890
sg8
g11
(g15
S'q\xec\xb7\xa0\xde\x7f\xb3>'
p30
tp31
Rp32
sg9
F1.6095923657034096e-06
ssI6
(dp33
g2
F23.053781032562256
sg3
I3277440
sg4
I999488
sg5
I4
sg6
I17960960
sg7
I143702268
sg8
g11
(g15
S'\xbeM\x97\xbbJ\x04\xa3>'
p34
tp35
Rp36
sg9
F8.048175574169421e-07
ssI7
(dp37
g2
F23.016578912734985
sg3
I3400117
sg4
I999488
sg5
I4
sg6
I20955136
sg7
I167652646
sg8
g11
(g15
S'"\xf9\xdc\x94S\xb1\x94>'
p38
tp39
Rp40
sg9
F6.036149290873182e-07
ssI8
(dp41
g2
F22.978123903274536
sg3
I3502752
sg4
I999488
sg5
I4
sg6
I23949312
sg7
I191603024
sg8
g11
(g15
S'?\xd4\xa2\x19cg\x88>'
p42
tp43
Rp44
sg9
F3.01787001550984e-07
ssI9
(dp45
g2
F23.24010920524597
sg3
I3595252
sg4
I999488
sg5
I4
sg6
I26943488
sg7
I215553402
sg8
g11
(g15
S'\xd4\xa0f_\x8f\x9c~>'
p46
tp47
Rp48
sg9
F2.0120396428146744e-07
ssI10
(dp49
g2
F17.76016092300415
sg3
I2918433
sg4
I999488
sg5
I3
sg6
I29937664
sg7
I239503780
sg8
g11
(g15
S"\xf6z\xb86\xa2'\xc0>"
p50
tp51
Rp52
sg9
F1.9114390067358106e-06
ssI11
(dp53
g2
F17.521907091140747
sg3
I2978574
sg4
I999488
sg5
I3
sg6
I32927744
sg7
I263454158
sg8
g11
(g15
S'Pj\x14,\xecP\xb8>'
p54
tp55
Rp56
sg9
F1.1065728212436229e-06
ss.