(dp0
F0.0078125
(dp1
I1024
F0.008228254007321785
sI2048
F0.008061224081418664
sI4096
F0.007916752540704295
sI16384
F0.0077949052475290125
sI8192
F0.008105157946026311
sI65536
F0.007987544913055528
sI32768
F0.008010357634553197
ssF0.00390625
(dp2
I1024
F0.004432295929291373
sI2048
F0.004142145631437085
sI4096
F0.004042065495468184
sI16384
F0.003952059022750853
sI8192
F0.003964851585690517
sI65536
F0.003961961170779536
sI32768
F0.004004154234978418
ssF0.00048828125
(dp3
I1024
F0.0005372412213083675
sI2048
F0.0005252694632346394
sI4096
F0.0005182793525710358
sI16384
F0.0005112633005998089
sI8192
F0.0005132345481885221
sI65536
F0.0004742660632614897
sI32768
F0.0004952719042754472
ssF0.0001220703125
(dp4
I1024
F0.000186101611479868
sI2048
F0.0001340749478958738
sI4096
F0.0001340656921891727
sI16384
F0.00012707065128211286
sI8192
F0.00015507971097143932
sI65536
F0.00011906858350409836
sI32768
F0.0001150635150603133
ssF0.0009765625
(dp5
I1024
F0.0010965416915956483
sI2048
F0.0010425254328181404
sI4096
F0.0009944942636490337
sI16384
F0.0009325044849263452
sI8192
F0.0010855873027307773
sI65536
F0.001035602720783496
sI32768
F0.0010205306759514948
ssF0.001953125
(dp6
I1024
F0.0021230742755834454
sI2048
F0.002058039309851475
sI4096
F0.002039011349629416
sI16384
F0.002013952599579601
sI8192
F0.0020750188342476155
sI65536
F0.001967123227362824
sI32768
F0.002029081500439734
ssF0.000244140625
(dp7
I1024
F0.0003461793208882201
sI2048
F0.00027815437567850157
sI4096
F0.00026713757585156356
sI16384
F0.0002491330370417803
sI8192
F0.0002451326167456594
sI65536
F0.00026514052447797334
sI32768
F0.00024111887160370064
ss.