(dp0
F0.0078125
(dp1
I1024
F0.008136662286465177
sI2048
F0.008745587692956113
sI4096
F0.00823848352830726
sI16384
F0.007924810424009398
sI8192
F0.008298930877527257
sI65536
F0.008551996588179839
sI32768
F0.008211322066298822
ssF0.00390625
(dp2
I1024
F0.003847407204953274
sI2048
F0.004122627123100384
sI4096
F0.004089828269484809
sI16384
F0.003908210445386496
sI8192
F0.004267711532352007
sI65536
F0.0037216393148596537
sI32768
F0.00393243169844115
ssF0.00048828125
(dp3
I1024
F0.0005154259627420661
sI2048
F0.0006635769959974721
sI4096
F0.0005595321044741454
sI16384
F0.0005027652086475615
sI8192
F0.00039192424210325615
sI65536
F0.0005837580547385438
sI32768
F0.0005319495407864168
ssF0.0001220703125
(dp4
I1024
F0.00021032484672576794
sI2048
F9.466410021772743e-05
sI4096
F0.0001477369859544337
sI16384
F8.552582345331894e-05
sI8192
F0.0001377133232343563
sI65536
F0.0002018978396931153
sI32768
F9.776657686625532e-05
ssF0.0009765625
(dp5
I1024
F0.0008941909150203033
sI2048
F0.0011170593938372045
sI4096
F0.0008337994870549991
sI16384
F0.0010994758809150201
sI8192
F0.0009430163809362351
sI65536
F0.0010772838979722374
sI32768
F0.0008349508246494834
ssF0.001953125
(dp6
I1024
F0.00210227571345982
sI2048
F0.0020430945510457694
sI4096
F0.0019608876706552108
sI16384
F0.0019546270187131504
sI8192
F0.0020156157175591953
sI65536
F0.0019514164591884799
sI32768
F0.002012006786444512
ssF0.000244140625
(dp7
I1024
F0.00035735682078555435
sI2048
F0.0002632826075509452
sI4096
F0.00027416327477486975
sI16384
F0.00026701128923730896
sI8192
F0.0002332287337800017
sI65536
F0.00024710771650005616
sI32768
F0.00026099438862064463
ss.