(dp0
F0.0078125
(dp1
I1024
F0.008098828881961413
sI2048
F0.00811578947368421
sI4096
F0.007561356820005914
sI16384
F0.007638562454595957
sI8192
F0.007831376372345386
sI65536
F0.006674444170237588
sI32768
F0.007438340075688373
ssF0.00390625
(dp2
I1024
F0.0037545354156807067
sI2048
F0.003877684348064319
sI4096
F0.0038623076760726876
sI16384
F0.0038793656221946735
sI8192
F0.00397831552816117
sI65536
F0.003097538803407293
sI32768
F0.003665433978681749
ssF0.00048828125
(dp3
I1024
F0.0005685587036861556
sI2048
F0.0005584237698872616
sI4096
F0.0004750643976183438
sI16384
F0.0004694434960737453
sI8192
F0.0005619705018502614
sI65536
F0.00026910053147354967
sI32768
F0.00044539074890824953
ssF0.0001220703125
(dp4
I1024
F0.00022108521255764007
sI2048
F0.00015793131040872622
sI4096
F0.00011603253130241243
sI16384
F0.0001177011887820067
sI8192
F6.357009662654687e-05
sI65536
F8.976056369634001e-05
sI32768
F9.775064895569724e-05
ssF0.0009765625
(dp5
I1024
F0.0011583824768323504
sI2048
F0.001021977790420802
sI4096
F0.0010544741337494992
sI16384
F0.0013872881717676186
sI8192
F0.001091032349638794
sI65536
F0.0007077379347533028
sI32768
F0.0007166512840002171
ssF0.001953125
(dp6
I1024
F0.001901979740237905
sI2048
F0.002192058005227215
sI4096
F0.002047752749688615
sI16384
F0.0018671645772205922
sI8192
F0.0018327241908999417
sI65536
F0.001714862138533961
sI32768
F0.00191331383782491
ssF0.000244140625
(dp7
I1024
F0.00036823887129525394
sI2048
F0.00021096601337524526
sI4096
F0.00030604599132517913
sI16384
F0.00024560841475786214
sI8192
F0.0002649455801778315
sI65536
F0.00021316459672624056
sI32768
F0.00020636920536994395
ss.