(dp0
(F0.000244140625
I8192
tp1
F0.00019075879610004238
s(F0.000244140625
I4096
tp2
F0.0002532794410967
s(F0.00048828125
I4096
tp3
F0.0005062009617818274
s(F0.00048828125
I2048
tp4
F0.0004528365470686732
s(F0.001953125
I16384
tp5
F0.0018803619696791632
s(F0.0009765625
I32768
tp6
F0.0008368655580915118
s(F0.00048828125
I32768
tp7
F0.0004556747784010155
s(F0.0078125
I16384
tp8
F0.007398616501480793
s(F0.0009765625
I1024
tp9
F0.0009787825208385956
s(F0.001953125
I32768
tp10
F0.0018575851393188853
s(F0.0001220703125
I65536
tp11
F4.485260313295433e-05
s(F0.0001220703125
I1024
tp12
F0.0002525119680151507
s(F0.001953125
I8192
tp13
F0.0018215129147383694
s(F0.00390625
I4096
tp14
F0.004063110126114717
s(F0.0009765625
I16384
tp15
F0.0009707391485230897
s(F0.0078125
I4096
tp16
F0.007901677392129972
s(F0.00048828125
I8192
tp17
F0.0005094027253045803
s(F0.001953125
I2048
tp18
F0.0020222659911736515
s(F0.0078125
I1024
tp19
F0.008239936858721389
s(F0.000244140625
I2048
tp20
F0.0003053531567198753
s(F0.00390625
I32768
tp21
F0.0033559962638747094
s(F0.0001220703125
I4096
tp22
F0.00012660097482750617
s(F0.0001220703125
I16384
tp23
F0.00013894084326404103
s(F0.0001220703125
I2048
tp24
F0.00014758902780998966
s(F0.0009765625
I8192
tp25
F0.0008371038326640035
s(F0.00390625
I8192
tp26
F0.003991529910005294
s(F0.0001220703125
I8192
tp27
F0.00014835694681403458
s(F0.001953125
I4096
tp28
F0.0020877487109733335
s(F0.000244140625
I32768
tp29
F0.00020619227972695802
s(F0.00048828125
I16384
tp30
F0.0004376974976513793
s(F0.00390625
I1024
tp31
F0.004231311706629055
s(F0.0009765625
I2048
tp32
F0.0009160498246870163
s(F0.000244140625
I1024
tp33
F0.00024184051144010766
s(F0.0001220703125
I32768
tp34
F7.596392798619627e-05
s(F0.00048828125
I1024
tp35
F0.0005045355645017186
s(F0.0078125
I32768
tp36
F0.007434016322278174
s(F0.0009765625
I65536
tp37
F0.00069531670554459
s(F0.0078125
I8192
tp38
F0.008517617183366839
s(F0.0009765625
I4096
tp39
F0.0008436237859726455
s(F0.0078125
I65536
tp40
F0.006774110337247513
s(F0.00390625
I16384
tp41
F0.0036903123966765855
s(F0.000244140625
I16384
tp42
F0.00020269044901268416
s(F0.00390625
I2048
tp43
F0.00410341881243473
s(F0.000244140625
I65536
tp44
F0.0001909340042230109
s(F0.0078125
I2048
tp45
F0.0076814465143724186
s(F0.001953125
I1024
tp46
F0.00218776952689484
s(F0.001953125
I65536
tp47
F0.001647427995068923
s(F0.00048828125
I65536
tp48
F0.0003476700499074749
s(F0.00390625
I65536
tp49
F0.0034680523911603946
s.